; Function Attrs: mustprogress nofree norecurse nosync nounwind willreturn memory(readwrite, inaccessiblemem: none) uwtable
define void @Proof_ClauseSetEnts(ptr noundef readonly captures(none) %0, i32 noundef %1, i32 noundef %2) local_unnamed_addr #0 {
  %4 = getelementptr inbounds nuw i8, ptr %0, i64 24
  %5 = load ptr, ptr %4, align 8, !tbaa !3
  %.val.i.i = load i32, ptr %0, align 8, !tbaa !10
  %6 = ashr i32 %1, %.val.i.i
  %7 = sext i32 %6 to i64
  %8 = getelementptr inbounds ptr, ptr %5, i64 %7
  %9 = load ptr, ptr %8, align 8, !tbaa !11
  %10 = getelementptr i8, ptr %0, i64 4
  %.val4.i.i = load i32, ptr %10, align 4, !tbaa !13
  %11 = and i32 %.val4.i.i, %1
  %12 = sext i32 %11 to i64
  %13 = getelementptr inbounds i64, ptr %9, i64 %12
  %14 = load i32, ptr %13, align 4
  %15 = shl i32 %2, 3
  %16 = and i32 %14, 7
  %17 = or disjoint i32 %16, %15
  store i32 %17, ptr %13, align 4
  ret void
}